target datalayout = "e-m:e-p270:32:32-p271:32:32-p272:64:64-i64:64-i128:128-f80:128-n8:16:32:64-S128"
target triple = "x86_64-unknown-linux-gnu"

%struct.napi_env__ = type <{ ptr, ptr, %"class.v8::Global", %"class.v8::Global.0", %"class.v8impl::RefTracker", %"class.v8impl::RefTracker", %"class.std::unordered_set", %struct.napi_extended_error_info, i32, i32, i32, [4 x i8], ptr, i32, i8, [3 x i8] }>
%"class.v8::Global" = type { %"class.v8::PersistentBase" }
%"class.v8::PersistentBase" = type { %"class.v8::IndirectHandleBase" }
%"class.v8::IndirectHandleBase" = type { ptr }
%"class.v8::Global.0" = type { %"class.v8::PersistentBase.1" }
%"class.v8::PersistentBase.1" = type { %"class.v8::IndirectHandleBase" }
%"class.v8impl::RefTracker" = type { ptr, ptr, ptr }
%"class.std::unordered_set" = type { %"class.std::_Hashtable" }
%"class.std::_Hashtable" = type { ptr, i64, %"struct.std::__detail::_Hash_node_base", i64, %"struct.std::__detail::_Prime_rehash_policy", ptr }
%"struct.std::__detail::_Hash_node_base" = type { ptr }
%"struct.std::__detail::_Prime_rehash_policy" = type { float, i64 }
%struct.napi_extended_error_info = type { ptr, ptr, i32, i32 }
%"class.v8impl::Finalizer" = type { ptr, ptr, ptr, ptr, ptr }
%"class.v8impl::RefBase" = type { %"class.v8impl::TrackedFinalizer", i32, i32 }
%"class.v8impl::TrackedFinalizer" = type { %"class.v8impl::Finalizer", %"class.v8impl::RefTracker" }
%"class.v8impl::Reference" = type <{ %"class.v8impl::RefBase", %"class.v8::Global.0", i8, [7 x i8] }>
%"class.v8::Local" = type { %"class.v8::LocalBase" }
%"class.v8::LocalBase" = type { %"class.v8::IndirectHandleBase" }

; Function Attrs: mustprogress nounwind uwtable
define dso_local ptr @_ZN6v8impl9Reference3GetEv(ptr noundef nonnull align 8 dereferenceable(81) %this) #4 align 2 {
entry:
  %this.addr.i.i.i = alloca ptr, align 8
  %location.addr.i.i.i = alloca ptr, align 8
  %this.addr.i.i29 = alloca ptr, align 8
  %location.addr.i.i = alloca ptr, align 8
  %retval.i30 = alloca %"class.v8::LocalBase", align 8
  %isolate.addr.i31 = alloca ptr, align 8
  %value.addr.i = alloca i64, align 8
  %this.addr.i.i25 = alloca ptr, align 8
  %this.addr.i26 = alloca ptr, align 8
  %this.addr.i.i21 = alloca ptr, align 8
  %this.addr.i22 = alloca ptr, align 8
  %value.addr.i6.i = alloca ptr, align 8
  %value.addr.i.i = alloca ptr, align 8
  %retval.i18 = alloca %"class.v8::LocalBase", align 8
  %isolate.addr.i19 = alloca ptr, align 8
  %that.addr.i20 = alloca ptr, align 8
  %this.addr.i.i13 = alloca ptr, align 8
  %other.addr.i.i = alloca ptr, align 8
  %retval.i14 = alloca %"class.v8::Local", align 8
  %isolate.addr.i15 = alloca ptr, align 8
  %that.addr.i16 = alloca ptr, align 8
  %ref.tmp.i = alloca %"class.v8::LocalBase", align 8
  %slot.addr.i = alloca ptr, align 8
  %this.addr.i.i = alloca ptr, align 8
  %this.addr.i11 = alloca ptr, align 8
  %retval.i = alloca %"class.v8::Local", align 8
  %isolate.addr.i = alloca ptr, align 8
  %that.addr.i = alloca ptr, align 8
  %this.addr.i9 = alloca ptr, align 8
  %this.addr.i = alloca ptr, align 8
  %retval = alloca %"class.v8::Local", align 8
  %this.addr = alloca ptr, align 8
  store ptr %this, ptr %this.addr, align 8
  %this1 = load ptr, ptr %this.addr, align 8
  %persistent_ = getelementptr inbounds %"class.v8impl::Reference", ptr %this1, i32 0, i32 1
  store ptr %persistent_, ptr %this.addr.i, align 8
  %this1.i = load ptr, ptr %this.addr.i, align 8
  %0 = load ptr, ptr %this1.i, align 8
  %cmp.i = icmp eq ptr %0, null
  br i1 %cmp.i, label %if.then, label %if.else

if.then:                                          ; preds = %entry
  call void @llvm.memset.p0.i64(ptr align 8 %retval, i8 0, i64 8, i1 false)
  store ptr %retval, ptr %this.addr.i9, align 8
  %this1.i10 = load ptr, ptr %this.addr.i9, align 8
  store ptr %this1.i10, ptr %this.addr.i26, align 8
  %this1.i27 = load ptr, ptr %this.addr.i26, align 8
  store ptr %this1.i27, ptr %this.addr.i.i25, align 8
  %this1.i.i28 = load ptr, ptr %this.addr.i.i25, align 8
  store ptr null, ptr %this1.i.i28, align 8
  br label %return

if.else:                                          ; preds = %entry
  %env_ = getelementptr inbounds %"class.v8impl::Finalizer", ptr %this1, i32 0, i32 1
  %1 = load ptr, ptr %env_, align 8
  %isolate = getelementptr inbounds %struct.napi_env__, ptr %1, i32 0, i32 1
  %2 = load ptr, ptr %isolate, align 8
  %persistent_2 = getelementptr inbounds %"class.v8impl::Reference", ptr %this1, i32 0, i32 1
  store ptr %2, ptr %isolate.addr.i, align 8
  store ptr %persistent_2, ptr %that.addr.i, align 8
  %3 = load ptr, ptr %isolate.addr.i, align 8
  %4 = load ptr, ptr %that.addr.i, align 8
  store ptr %4, ptr %this.addr.i11, align 8
  %this1.i12 = load ptr, ptr %this.addr.i11, align 8
  store ptr %this1.i12, ptr %this.addr.i.i, align 8
  %this1.i.i = load ptr, ptr %this.addr.i.i, align 8
  %5 = load ptr, ptr %this1.i.i, align 8
  store ptr %5, ptr %slot.addr.i, align 8
  %6 = load ptr, ptr %slot.addr.i, align 8
  store ptr %3, ptr %isolate.addr.i15, align 8
  store ptr %6, ptr %that.addr.i16, align 8
  %7 = load ptr, ptr %isolate.addr.i15, align 8
  %8 = load ptr, ptr %that.addr.i16, align 8
  store ptr %7, ptr %isolate.addr.i19, align 8
  store ptr %8, ptr %that.addr.i20, align 8
  %9 = load ptr, ptr %that.addr.i20, align 8
  store ptr %9, ptr %value.addr.i.i, align 8
  %10 = load ptr, ptr %value.addr.i.i, align 8
  %11 = ptrtoint ptr %10 to i64
  %cmp.i.i = icmp eq i64 %11, 0
  br i1 %cmp.i.i, label %if.then.i, label %if.end.i

if.then.i:                                        ; preds = %if.else
  call void @llvm.memset.p0.i64(ptr align 8 %retval.i18, i8 0, i64 8, i1 false)
  store ptr %retval.i18, ptr %this.addr.i22, align 8
  %this1.i23 = load ptr, ptr %this.addr.i22, align 8
  store ptr %this1.i23, ptr %this.addr.i.i21, align 8
  %this1.i.i24 = load ptr, ptr %this.addr.i.i21, align 8
  store ptr null, ptr %this1.i.i24, align 8
  br label %_ZN2v89LocalBaseINS_5ValueEE3NewEPNS_7IsolateEPS1_.exit

if.end.i:                                         ; preds = %if.else
  %12 = load ptr, ptr %isolate.addr.i19, align 8
  %13 = load ptr, ptr %that.addr.i20, align 8
  store ptr %13, ptr %value.addr.i6.i, align 8
  %14 = load ptr, ptr %value.addr.i6.i, align 8
  %15 = load i64, ptr %14, align 8
  store ptr %12, ptr %isolate.addr.i31, align 8
  store i64 %15, ptr %value.addr.i, align 8
  %16 = load ptr, ptr %isolate.addr.i31, align 8
  %17 = load i64, ptr %value.addr.i, align 8
  %call.i = call noundef ptr @_ZN2v811HandleScope12CreateHandleEPNS_8internal7IsolateEm(ptr noundef %16, i64 noundef %17) #3
  store ptr %retval.i30, ptr %this.addr.i.i29, align 8
  store ptr %call.i, ptr %location.addr.i.i, align 8
  %this1.i.i32 = load ptr, ptr %this.addr.i.i29, align 8
  %18 = load ptr, ptr %location.addr.i.i, align 8
  store ptr %this1.i.i32, ptr %this.addr.i.i.i, align 8
  store ptr %18, ptr %location.addr.i.i.i, align 8
  %this1.i.i.i = load ptr, ptr %this.addr.i.i.i, align 8
  %19 = load ptr, ptr %location.addr.i.i.i, align 8
  store ptr %19, ptr %this1.i.i.i, align 8
  %20 = load ptr, ptr %retval.i30, align 8
  store ptr %20, ptr %retval.i18, align 8
  br label %_ZN2v89LocalBaseINS_5ValueEE3NewEPNS_7IsolateEPS1_.exit

_ZN2v89LocalBaseINS_5ValueEE3NewEPNS_7IsolateEPS1_.exit: ; preds = %if.end.i, %if.then.i
  %21 = load ptr, ptr %retval.i18, align 8
  store ptr %21, ptr %ref.tmp.i, align 8
  store ptr %retval.i14, ptr %this.addr.i.i13, align 8
  store ptr %ref.tmp.i, ptr %other.addr.i.i, align 8
  %this1.i.i17 = load ptr, ptr %this.addr.i.i13, align 8
  %22 = load ptr, ptr %other.addr.i.i, align 8
  call void @llvm.memcpy.p0.p0.i64(ptr align 8 %this1.i.i17, ptr align 8 %22, i64 8, i1 false)
  %23 = load ptr, ptr %retval.i14, align 8
  store ptr %23, ptr %retval.i, align 8
  %24 = load ptr, ptr %retval.i, align 8
  %coerce.dive = getelementptr inbounds %"class.v8::Local", ptr %retval, i32 0, i32 0
  %coerce.dive4 = getelementptr inbounds %"class.v8::LocalBase", ptr %coerce.dive, i32 0, i32 0
  %coerce.dive5 = getelementptr inbounds %"class.v8::IndirectHandleBase", ptr %coerce.dive4, i32 0, i32 0
  store ptr %24, ptr %coerce.dive5, align 8
  br label %return

return:                                           ; preds = %_ZN2v89LocalBaseINS_5ValueEE3NewEPNS_7IsolateEPS1_.exit, %if.then
  %coerce.dive6 = getelementptr inbounds %"class.v8::Local", ptr %retval, i32 0, i32 0
  %coerce.dive7 = getelementptr inbounds %"class.v8::LocalBase", ptr %coerce.dive6, i32 0, i32 0
  %coerce.dive8 = getelementptr inbounds %"class.v8::IndirectHandleBase", ptr %coerce.dive7, i32 0, i32 0
  %25 = load ptr, ptr %coerce.dive8, align 8
  ret ptr %25
}