; Function Attrs: mustprogress nounwind uwtable
define dso_local noundef ptr @_ZN6v8impl9Reference3GetEv(ptr nocapture noundef nonnull readonly align 8 dereferenceable(81) %this) local_unnamed_addr #3 align 2 {
entry:
  %persistent_ = getelementptr inbounds i8, ptr %this, i64 72
  %0 = load ptr, ptr %persistent_, align 8
  %cmp.i = icmp eq ptr %0, null
  br i1 %cmp.i, label %return, label %if.end.i

if.end.i:                                         ; preds = %entry
  %env_ = getelementptr inbounds i8, ptr %this, i64 8
  %1 = load ptr, ptr %env_, align 8
  %isolate = getelementptr inbounds i8, ptr %1, i64 8
  %2 = load ptr, ptr %isolate, align 8
  %3 = load i64, ptr %0, align 8
  %call.i = tail call noundef ptr @_ZN2v811HandleScope12CreateHandleEPNS_8internal7IsolateEm(ptr noundef %2, i64 noundef %3) #24
  br label %return

return:                                           ; preds = %entry, %if.end.i
  %retval.sroa.0.0 = phi ptr [ %call.i, %if.end.i ], [ null, %entry ]
  ret ptr %retval.sroa.0.0
}